target datalayout = "e-m:e-p270:32:32-p271:32:32-p272:64:64-i64:64-i128:128-f80:128-n8:16:32:64-S128"
target triple = "x86_64-pc-linux-gnu"

%struct.dbcs_index = type { ptr, i8, i8 }

; Function Attrs: nounwind uwtable
define internal i64 @gb2312_decode(ptr noundef %0, ptr noundef %1, ptr noundef %2, i64 noundef %3, ptr noundef %4) #0 {
  %6 = alloca i64, align 8
  %7 = alloca ptr, align 8
  %8 = alloca ptr, align 8
  %9 = alloca ptr, align 8
  %10 = alloca i64, align 8
  %11 = alloca ptr, align 8
  %12 = alloca i8, align 1
  %13 = alloca i32, align 4
  %14 = alloca i32, align 4
  store ptr %0, ptr %7, align 8, !tbaa !3
  store ptr %1, ptr %8, align 8, !tbaa !21
  store ptr %2, ptr %9, align 8, !tbaa !68
  store i64 %3, ptr %10, align 8, !tbaa !28
  store ptr %4, ptr %11, align 8, !tbaa !3
  br label %15

15:                                               ; preds = %142, %140, %5
  %16 = load i64, ptr %10, align 8, !tbaa !28
  %17 = icmp sgt i64 %16, 0
  br i1 %17, label %18, label %143

18:                                               ; preds = %15
  call void @llvm.lifetime.start.p0(i64 1, ptr %12) #9
  %19 = load ptr, ptr %9, align 8, !tbaa !68
  %20 = load ptr, ptr %19, align 8, !tbaa !17
  %21 = load i8, ptr %20, align 1, !tbaa !42
  store i8 %21, ptr %12, align 1, !tbaa !42
  call void @llvm.lifetime.start.p0(i64 4, ptr %13) #9
  %22 = load i8, ptr %12, align 1, !tbaa !42
  %23 = zext i8 %22 to i32
  %24 = icmp slt i32 %23, 128
  br i1 %24, label %25, label %44

25:                                               ; preds = %18
  br label %26

26:                                               ; preds = %25
  %27 = load ptr, ptr %11, align 8, !tbaa !3
  %28 = load i8, ptr %12, align 1, !tbaa !42
  %29 = zext i8 %28 to i32
  %30 = call i32 @_PyUnicodeWriter_WriteChar(ptr noundef %27, i32 noundef %29)
  %31 = icmp slt i32 %30, 0
  br i1 %31, label %32, label %33

32:                                               ; preds = %26
  store i64 -4, ptr %6, align 8
  store i32 1, ptr %14, align 4
  br label %140

33:                                               ; preds = %26
  br label %34

34:                                               ; preds = %33
  br label %35

35:                                               ; preds = %34
  br label %36

36:                                               ; preds = %35
  %37 = load ptr, ptr %9, align 8, !tbaa !68
  %38 = load ptr, ptr %37, align 8, !tbaa !17
  %39 = getelementptr i8, ptr %38, i64 1
  store ptr %39, ptr %37, align 8, !tbaa !17
  %40 = load i64, ptr %10, align 8, !tbaa !28
  %41 = sub i64 %40, 1
  store i64 %41, ptr %10, align 8, !tbaa !28
  br label %42

42:                                               ; preds = %36
  br label %43

43:                                               ; preds = %42
  store i32 2, ptr %14, align 4
  br label %140, !llvm.loop !77

44:                                               ; preds = %18
  br label %45

45:                                               ; preds = %44
  %46 = load i64, ptr %10, align 8, !tbaa !28
  %47 = icmp slt i64 %46, 2
  br i1 %47, label %48, label %49

48:                                               ; preds = %45
  store i64 -2, ptr %6, align 8
  store i32 1, ptr %14, align 4
  br label %140

49:                                               ; preds = %45
  br label %50

50:                                               ; preds = %49
  br label %51

51:                                               ; preds = %50
  %52 = load i8, ptr %12, align 1, !tbaa !42
  %53 = zext i8 %52 to i32
  %54 = xor i32 %53, 128
  %55 = sext i32 %54 to i64
  %56 = getelementptr [256 x %struct.dbcs_index], ptr @gb2312_decmap, i64 0, i64 %55
  %57 = getelementptr inbounds nuw %struct.dbcs_index, ptr %56, i32 0, i32 0
  %58 = load ptr, ptr %57, align 16, !tbaa !78
  %59 = icmp ne ptr %58, null
  br i1 %59, label %60, label %138

60:                                               ; preds = %51
  %61 = load ptr, ptr %9, align 8, !tbaa !68
  %62 = load ptr, ptr %61, align 8, !tbaa !17
  %63 = getelementptr i8, ptr %62, i64 1
  %64 = load i8, ptr %63, align 1, !tbaa !42
  %65 = zext i8 %64 to i32
  %66 = xor i32 %65, 128
  %67 = load i8, ptr %12, align 1, !tbaa !42
  %68 = zext i8 %67 to i32
  %69 = xor i32 %68, 128
  %70 = sext i32 %69 to i64
  %71 = getelementptr [256 x %struct.dbcs_index], ptr @gb2312_decmap, i64 0, i64 %70
  %72 = getelementptr inbounds nuw %struct.dbcs_index, ptr %71, i32 0, i32 1
  %73 = load i8, ptr %72, align 8, !tbaa !80
  %74 = zext i8 %73 to i32
  %75 = icmp sge i32 %66, %74
  br i1 %75, label %76, label %138

76:                                               ; preds = %60
  %77 = load ptr, ptr %9, align 8, !tbaa !68
  %78 = load ptr, ptr %77, align 8, !tbaa !17
  %79 = getelementptr i8, ptr %78, i64 1
  %80 = load i8, ptr %79, align 1, !tbaa !42
  %81 = zext i8 %80 to i32
  %82 = xor i32 %81, 128
  %83 = load i8, ptr %12, align 1, !tbaa !42
  %84 = zext i8 %83 to i32
  %85 = xor i32 %84, 128
  %86 = sext i32 %85 to i64
  %87 = getelementptr [256 x %struct.dbcs_index], ptr @gb2312_decmap, i64 0, i64 %86
  %88 = getelementptr inbounds nuw %struct.dbcs_index, ptr %87, i32 0, i32 2
  %89 = load i8, ptr %88, align 1, !tbaa !81
  %90 = zext i8 %89 to i32
  %91 = icmp sle i32 %82, %90
  br i1 %91, label %92, label %138

92:                                               ; preds = %76
  %93 = load i8, ptr %12, align 1, !tbaa !42
  %94 = zext i8 %93 to i32
  %95 = xor i32 %94, 128
  %96 = sext i32 %95 to i64
  %97 = getelementptr [256 x %struct.dbcs_index], ptr @gb2312_decmap, i64 0, i64 %96
  %98 = getelementptr inbounds nuw %struct.dbcs_index, ptr %97, i32 0, i32 0
  %99 = load ptr, ptr %98, align 16, !tbaa !78
  %100 = load ptr, ptr %9, align 8, !tbaa !68
  %101 = load ptr, ptr %100, align 8, !tbaa !17
  %102 = getelementptr i8, ptr %101, i64 1
  %103 = load i8, ptr %102, align 1, !tbaa !42
  %104 = zext i8 %103 to i32
  %105 = xor i32 %104, 128
  %106 = load i8, ptr %12, align 1, !tbaa !42
  %107 = zext i8 %106 to i32
  %108 = xor i32 %107, 128
  %109 = sext i32 %108 to i64
  %110 = getelementptr [256 x %struct.dbcs_index], ptr @gb2312_decmap, i64 0, i64 %109
  %111 = getelementptr inbounds nuw %struct.dbcs_index, ptr %110, i32 0, i32 1
  %112 = load i8, ptr %111, align 8, !tbaa !80
  %113 = zext i8 %112 to i32
  %114 = sub i32 %105, %113
  %115 = sext i32 %114 to i64
  %116 = getelementptr i16, ptr %99, i64 %115
  %117 = load i16, ptr %116, align 2, !tbaa !76
  %118 = zext i16 %117 to i32
  store i32 %118, ptr %13, align 4, !tbaa !19
  %119 = icmp ne i32 %118, 65534
  br i1 %119, label %120, label %138

120:                                              ; preds = %92
  br label %121

121:                                              ; preds = %120
  %122 = load ptr, ptr %11, align 8, !tbaa !3
  %123 = load i32, ptr %13, align 4, !tbaa !19
  %124 = call i32 @_PyUnicodeWriter_WriteChar(ptr noundef %122, i32 noundef %123)
  %125 = icmp slt i32 %124, 0
  br i1 %125, label %126, label %127

126:                                              ; preds = %121
  store i64 -4, ptr %6, align 8
  store i32 1, ptr %14, align 4
  br label %140

127:                                              ; preds = %121
  br label %128

128:                                              ; preds = %127
  br label %129

129:                                              ; preds = %128
  br label %130

130:                                              ; preds = %129
  %131 = load ptr, ptr %9, align 8, !tbaa !68
  %132 = load ptr, ptr %131, align 8, !tbaa !17
  %133 = getelementptr i8, ptr %132, i64 2
  store ptr %133, ptr %131, align 8, !tbaa !17
  %134 = load i64, ptr %10, align 8, !tbaa !28
  %135 = sub i64 %134, 2
  store i64 %135, ptr %10, align 8, !tbaa !28
  br label %136

136:                                              ; preds = %130
  br label %137

137:                                              ; preds = %136
  br label %139

138:                                              ; preds = %92, %76, %60, %51
  store i64 1, ptr %6, align 8
  store i32 1, ptr %14, align 4
  br label %140

139:                                              ; preds = %137
  store i32 0, ptr %14, align 4
  br label %140

140:                                              ; preds = %139, %138, %126, %48, %43, %32
  call void @llvm.lifetime.end.p0(i64 4, ptr %13) #9
  call void @llvm.lifetime.end.p0(i64 1, ptr %12) #9
  %141 = load i32, ptr %14, align 4
  switch i32 %141, label %146 [
    i32 0, label %142
    i32 1, label %144
    i32 2, label %15
  ]

142:                                              ; preds = %140
  br label %15, !llvm.loop !77

143:                                              ; preds = %15
  store i64 0, ptr %6, align 8
  br label %144

144:                                              ; preds = %143, %140
  %145 = load i64, ptr %6, align 8
  ret i64 %145

146:                                              ; preds = %140
  unreachable
}