; Function Attrs: nounwind uwtable
define internal range(i64 -4, 2) i64 @gb2312_decode(ptr readnone captures(none) %0, ptr readnone captures(none) %1, ptr noundef captures(none) %2, i64 noundef %3, ptr noundef %4) #0 {
  %6 = icmp sgt i64 %3, 0
  br i1 %6, label %.lr.ph.preheader, label %.thread

.lr.ph.preheader:                                 ; preds = %5
  %.pre = load ptr, ptr %2, align 8, !tbaa !37
  br label %.lr.ph

.lr.ph:                                           ; preds = %.lr.ph.preheader, %40
  %7 = phi ptr [ %42, %40 ], [ %.pre, %.lr.ph.preheader ]
  %.02238 = phi i64 [ %43, %40 ], [ %3, %.lr.ph.preheader ]
  %8 = load i8, ptr %7, align 1, !tbaa !34
  %9 = zext i8 %8 to i32
  %10 = icmp sgt i8 %8, -1
  br i1 %10, label %11, label %14

11:                                               ; preds = %.lr.ph
  %12 = tail call i32 @_PyUnicodeWriter_WriteChar(ptr noundef %4, i32 noundef %9) #9
  %13 = icmp slt i32 %12, 0
  br i1 %13, label %.thread, label %40, !llvm.loop !58

14:                                               ; preds = %.lr.ph
  %15 = icmp eq i64 %.02238, 1
  br i1 %15, label %.thread, label %16

16:                                               ; preds = %14
  %17 = and i32 %9, 127
  %18 = zext nneg i32 %17 to i64
  %19 = getelementptr [256 x %struct.dbcs_index], ptr @gb2312_decmap, i64 0, i64 %18
  %20 = load ptr, ptr %19, align 16, !tbaa !59
  %.not = icmp eq ptr %20, null
  br i1 %.not, label %.thread, label %21

21:                                               ; preds = %16
  %22 = getelementptr i8, ptr %7, i64 1
  %23 = load i8, ptr %22, align 1, !tbaa !34
  %24 = xor i8 %23, -128
  %25 = zext i8 %24 to i64
  %26 = getelementptr inbounds nuw i8, ptr %19, i64 8
  %27 = load i8, ptr %26, align 8, !tbaa !61
  %28 = zext i8 %27 to i64
  %.not30 = icmp ult i8 %24, %27
  br i1 %.not30, label %.thread, label %29

29:                                               ; preds = %21
  %30 = getelementptr inbounds nuw i8, ptr %19, i64 9
  %31 = load i8, ptr %30, align 1, !tbaa !62
  %.not31 = icmp ugt i8 %24, %31
  br i1 %.not31, label %.thread, label %32

32:                                               ; preds = %29
  %33 = sub nsw i64 %25, %28
  %34 = getelementptr i16, ptr %20, i64 %33
  %35 = load i16, ptr %34, align 2, !tbaa !50
  %.not32 = icmp eq i16 %35, -2
  br i1 %.not32, label %.thread, label %36

36:                                               ; preds = %32
  %37 = zext i16 %35 to i32
  %38 = tail call i32 @_PyUnicodeWriter_WriteChar(ptr noundef %4, i32 noundef %37) #9
  %39 = icmp slt i32 %38, 0
  br i1 %39, label %.thread, label %40

40:                                               ; preds = %36, %11
  %.sink55 = phi i64 [ 1, %11 ], [ 2, %36 ]
  %.sink = phi i64 [ -1, %11 ], [ -2, %36 ]
  %41 = load ptr, ptr %2, align 8, !tbaa !37
  %42 = getelementptr i8, ptr %41, i64 %.sink55
  store ptr %42, ptr %2, align 8, !tbaa !37
  %43 = add nsw i64 %.02238, %.sink
  %44 = icmp sgt i64 %43, 0
  br i1 %44, label %.lr.ph, label %.thread

.thread:                                          ; preds = %40, %11, %14, %36, %32, %29, %21, %16, %5
  %.2 = phi i64 [ 0, %5 ], [ 1, %16 ], [ 1, %21 ], [ 1, %29 ], [ 1, %32 ], [ -4, %36 ], [ -2, %14 ], [ -4, %11 ], [ 0, %40 ]
  ret i64 %.2
}